target datalayout = "e-m:e-p270:32:32-p271:32:32-p272:64:64-i64:64-i128:128-f80:128-n8:16:32:64-S128"
target triple = "x86_64-pc-linux-gnu"

@.str.7 = private unnamed_addr constant [40 x i8] c"../openssl/test/namemap_internal_test.c\00", align 1
@.str.13 = private unnamed_addr constant [2 x i8] c"0\00", align 1
@.str.14 = private unnamed_addr constant [6 x i8] c"name1\00", align 1
@.str.16 = private unnamed_addr constant [6 x i8] c"name2\00", align 1
@.str.17 = private unnamed_addr constant [7 x i8] c"alias1\00", align 1
@.str.18 = private unnamed_addr constant [7 x i8] c"ALIAS1\00", align 1
@.str.19 = private unnamed_addr constant [7 x i8] c"cookie\00", align 1
@.str.20 = private unnamed_addr constant [5 x i8] c"num1\00", align 1
@.str.21 = private unnamed_addr constant [5 x i8] c"num2\00", align 1
@.str.22 = private unnamed_addr constant [5 x i8] c"num3\00", align 1
@.str.23 = private unnamed_addr constant [5 x i8] c"num4\00", align 1
@.str.24 = private unnamed_addr constant [7 x i8] c"check1\00", align 1
@.str.25 = private unnamed_addr constant [7 x i8] c"check2\00", align 1
@.str.26 = private unnamed_addr constant [7 x i8] c"check3\00", align 1
@.str.27 = private unnamed_addr constant [7 x i8] c"check4\00", align 1
@.str.28 = private unnamed_addr constant [7 x i8] c"false1\00", align 1

; Function Attrs: nounwind uwtable
define internal i32 @test_namemap(ptr noundef %0) #0 {
  %2 = alloca ptr, align 8
  %3 = alloca i32, align 4
  %4 = alloca i32, align 4
  %5 = alloca i32, align 4
  %6 = alloca i32, align 4
  %7 = alloca i32, align 4
  %8 = alloca i32, align 4
  %9 = alloca i32, align 4
  %10 = alloca i32, align 4
  %11 = alloca i32, align 4
  store ptr %0, ptr %2, align 8, !tbaa !4
  call void @llvm.lifetime.start.p0(i64 4, ptr %3) #3
  %12 = load ptr, ptr %2, align 8, !tbaa !4
  %13 = call i32 @ossl_namemap_add_name(ptr noundef %12, i32 noundef 0, ptr noundef @.str.14)
  store i32 %13, ptr %3, align 4, !tbaa !9
  call void @llvm.lifetime.start.p0(i64 4, ptr %4) #3
  %14 = load ptr, ptr %2, align 8, !tbaa !4
  %15 = call i32 @ossl_namemap_add_name(ptr noundef %14, i32 noundef 0, ptr noundef @.str.16)
  store i32 %15, ptr %4, align 4, !tbaa !9
  call void @llvm.lifetime.start.p0(i64 4, ptr %5) #3
  %16 = load ptr, ptr %2, align 8, !tbaa !4
  %17 = load i32, ptr %3, align 4, !tbaa !9
  %18 = call i32 @ossl_namemap_add_name(ptr noundef %16, i32 noundef %17, ptr noundef @.str.17)
  store i32 %18, ptr %5, align 4, !tbaa !9
  call void @llvm.lifetime.start.p0(i64 4, ptr %6) #3
  %19 = load ptr, ptr %2, align 8, !tbaa !4
  %20 = call i32 @ossl_namemap_add_name(ptr noundef %19, i32 noundef 0, ptr noundef @.str.18)
  store i32 %20, ptr %6, align 4, !tbaa !9
  call void @llvm.lifetime.start.p0(i64 4, ptr %7) #3
  %21 = load ptr, ptr %2, align 8, !tbaa !4
  %22 = call i32 @ossl_namemap_name2num(ptr noundef %21, ptr noundef @.str.14)
  store i32 %22, ptr %7, align 4, !tbaa !9
  call void @llvm.lifetime.start.p0(i64 4, ptr %8) #3
  %23 = load ptr, ptr %2, align 8, !tbaa !4
  %24 = call i32 @ossl_namemap_name2num(ptr noundef %23, ptr noundef @.str.16)
  store i32 %24, ptr %8, align 4, !tbaa !9
  call void @llvm.lifetime.start.p0(i64 4, ptr %9) #3
  %25 = load ptr, ptr %2, align 8, !tbaa !4
  %26 = call i32 @ossl_namemap_name2num(ptr noundef %25, ptr noundef @.str.17)
  store i32 %26, ptr %9, align 4, !tbaa !9
  call void @llvm.lifetime.start.p0(i64 4, ptr %10) #3
  %27 = load ptr, ptr %2, align 8, !tbaa !4
  %28 = call i32 @ossl_namemap_name2num(ptr noundef %27, ptr noundef @.str.18)
  store i32 %28, ptr %10, align 4, !tbaa !9
  call void @llvm.lifetime.start.p0(i64 4, ptr %11) #3
  %29 = load ptr, ptr %2, align 8, !tbaa !4
  %30 = call i32 @ossl_namemap_name2num(ptr noundef %29, ptr noundef @.str.19)
  store i32 %30, ptr %11, align 4, !tbaa !9
  %31 = load i32, ptr %3, align 4, !tbaa !9
  %32 = call i32 @test_int_ne(ptr noundef @.str.7, i32 noundef 45, ptr noundef @.str.20, ptr noundef @.str.13, i32 noundef %31, i32 noundef 0)
  %33 = icmp ne i32 %32, 0
  br i1 %33, label %34, label %72

34:                                               ; preds = %1
  %35 = load i32, ptr %4, align 4, !tbaa !9
  %36 = call i32 @test_int_ne(ptr noundef @.str.7, i32 noundef 46, ptr noundef @.str.21, ptr noundef @.str.13, i32 noundef %35, i32 noundef 0)
  %37 = icmp ne i32 %36, 0
  br i1 %37, label %38, label %72

38:                                               ; preds = %34
  %39 = load i32, ptr %3, align 4, !tbaa !9
  %40 = load i32, ptr %5, align 4, !tbaa !9
  %41 = call i32 @test_int_eq(ptr noundef @.str.7, i32 noundef 47, ptr noundef @.str.20, ptr noundef @.str.22, i32 noundef %39, i32 noundef %40)
  %42 = icmp ne i32 %41, 0
  br i1 %42, label %43, label %72

43:                                               ; preds = %38
  %44 = load i32, ptr %5, align 4, !tbaa !9
  %45 = load i32, ptr %6, align 4, !tbaa !9
  %46 = call i32 @test_int_eq(ptr noundef @.str.7, i32 noundef 48, ptr noundef @.str.22, ptr noundef @.str.23, i32 noundef %44, i32 noundef %45)
  %47 = icmp ne i32 %46, 0
  br i1 %47, label %48, label %72

48:                                               ; preds = %43
  %49 = load i32, ptr %3, align 4, !tbaa !9
  %50 = load i32, ptr %7, align 4, !tbaa !9
  %51 = call i32 @test_int_eq(ptr noundef @.str.7, i32 noundef 49, ptr noundef @.str.20, ptr noundef @.str.24, i32 noundef %49, i32 noundef %50)
  %52 = icmp ne i32 %51, 0
  br i1 %52, label %53, label %72

53:                                               ; preds = %48
  %54 = load i32, ptr %4, align 4, !tbaa !9
  %55 = load i32, ptr %8, align 4, !tbaa !9
  %56 = call i32 @test_int_eq(ptr noundef @.str.7, i32 noundef 50, ptr noundef @.str.21, ptr noundef @.str.25, i32 noundef %54, i32 noundef %55)
  %57 = icmp ne i32 %56, 0
  br i1 %57, label %58, label %72

58:                                               ; preds = %53
  %59 = load i32, ptr %5, align 4, !tbaa !9
  %60 = load i32, ptr %9, align 4, !tbaa !9
  %61 = call i32 @test_int_eq(ptr noundef @.str.7, i32 noundef 51, ptr noundef @.str.22, ptr noundef @.str.26, i32 noundef %59, i32 noundef %60)
  %62 = icmp ne i32 %61, 0
  br i1 %62, label %63, label %72

63:                                               ; preds = %58
  %64 = load i32, ptr %6, align 4, !tbaa !9
  %65 = load i32, ptr %10, align 4, !tbaa !9
  %66 = call i32 @test_int_eq(ptr noundef @.str.7, i32 noundef 52, ptr noundef @.str.23, ptr noundef @.str.27, i32 noundef %64, i32 noundef %65)
  %67 = icmp ne i32 %66, 0
  br i1 %67, label %68, label %72

68:                                               ; preds = %63
  %69 = load i32, ptr %11, align 4, !tbaa !9
  %70 = call i32 @test_int_eq(ptr noundef @.str.7, i32 noundef 53, ptr noundef @.str.28, ptr noundef @.str.13, i32 noundef %69, i32 noundef 0)
  %71 = icmp ne i32 %70, 0
  br label %72

72:                                               ; preds = %68, %63, %58, %53, %48, %43, %38, %34, %1
  %73 = phi i1 [ false, %63 ], [ false, %58 ], [ false, %53 ], [ false, %48 ], [ false, %43 ], [ false, %38 ], [ false, %34 ], [ false, %1 ], [ %71, %68 ]
  %74 = zext i1 %73 to i32
  call void @llvm.lifetime.end.p0(i64 4, ptr %11) #3
  call void @llvm.lifetime.end.p0(i64 4, ptr %10) #3
  call void @llvm.lifetime.end.p0(i64 4, ptr %9) #3
  call void @llvm.lifetime.end.p0(i64 4, ptr %8) #3
  call void @llvm.lifetime.end.p0(i64 4, ptr %7) #3
  call void @llvm.lifetime.end.p0(i64 4, ptr %6) #3
  call void @llvm.lifetime.end.p0(i64 4, ptr %5) #3
  call void @llvm.lifetime.end.p0(i64 4, ptr %4) #3
  call void @llvm.lifetime.end.p0(i64 4, ptr %3) #3
  ret i32 %74
}