; Function Attrs: nounwind uwtable
define internal fastcc range(i32 0, 2) i32 @test_namemap(ptr noundef %0) unnamed_addr #0 {
  %2 = tail call i32 @ossl_namemap_add_name(ptr noundef %0, i32 noundef 0, ptr noundef nonnull @.str.14) #2
  %3 = tail call i32 @ossl_namemap_add_name(ptr noundef %0, i32 noundef 0, ptr noundef nonnull @.str.16) #2
  %4 = tail call i32 @ossl_namemap_add_name(ptr noundef %0, i32 noundef %2, ptr noundef nonnull @.str.17) #2
  %5 = tail call i32 @ossl_namemap_add_name(ptr noundef %0, i32 noundef 0, ptr noundef nonnull @.str.18) #2
  %6 = tail call i32 @ossl_namemap_name2num(ptr noundef %0, ptr noundef nonnull @.str.14) #2
  %7 = tail call i32 @ossl_namemap_name2num(ptr noundef %0, ptr noundef nonnull @.str.16) #2
  %8 = tail call i32 @ossl_namemap_name2num(ptr noundef %0, ptr noundef nonnull @.str.17) #2
  %9 = tail call i32 @ossl_namemap_name2num(ptr noundef %0, ptr noundef nonnull @.str.18) #2
  %10 = tail call i32 @ossl_namemap_name2num(ptr noundef %0, ptr noundef nonnull @.str.19) #2
  %11 = tail call i32 @test_int_ne(ptr noundef nonnull @.str.7, i32 noundef 45, ptr noundef nonnull @.str.20, ptr noundef nonnull @.str.13, i32 noundef %2, i32 noundef 0) #2
  %.not = icmp eq i32 %11, 0
  br i1 %.not, label %30, label %12

12:                                               ; preds = %1
  %13 = tail call i32 @test_int_ne(ptr noundef nonnull @.str.7, i32 noundef 46, ptr noundef nonnull @.str.21, ptr noundef nonnull @.str.13, i32 noundef %3, i32 noundef 0) #2
  %.not24 = icmp eq i32 %13, 0
  br i1 %.not24, label %30, label %14

14:                                               ; preds = %12
  %15 = tail call i32 @test_int_eq(ptr noundef nonnull @.str.7, i32 noundef 47, ptr noundef nonnull @.str.20, ptr noundef nonnull @.str.22, i32 noundef %2, i32 noundef %4) #2
  %.not25 = icmp eq i32 %15, 0
  br i1 %.not25, label %30, label %16

16:                                               ; preds = %14
  %17 = tail call i32 @test_int_eq(ptr noundef nonnull @.str.7, i32 noundef 48, ptr noundef nonnull @.str.22, ptr noundef nonnull @.str.23, i32 noundef %4, i32 noundef %5) #2
  %.not26 = icmp eq i32 %17, 0
  br i1 %.not26, label %30, label %18

18:                                               ; preds = %16
  %19 = tail call i32 @test_int_eq(ptr noundef nonnull @.str.7, i32 noundef 49, ptr noundef nonnull @.str.20, ptr noundef nonnull @.str.24, i32 noundef %2, i32 noundef %6) #2
  %.not27 = icmp eq i32 %19, 0
  br i1 %.not27, label %30, label %20

20:                                               ; preds = %18
  %21 = tail call i32 @test_int_eq(ptr noundef nonnull @.str.7, i32 noundef 50, ptr noundef nonnull @.str.21, ptr noundef nonnull @.str.25, i32 noundef %3, i32 noundef %7) #2
  %.not28 = icmp eq i32 %21, 0
  br i1 %.not28, label %30, label %22

22:                                               ; preds = %20
  %23 = tail call i32 @test_int_eq(ptr noundef nonnull @.str.7, i32 noundef 51, ptr noundef nonnull @.str.22, ptr noundef nonnull @.str.26, i32 noundef %4, i32 noundef %8) #2
  %.not29 = icmp eq i32 %23, 0
  br i1 %.not29, label %30, label %24

24:                                               ; preds = %22
  %25 = tail call i32 @test_int_eq(ptr noundef nonnull @.str.7, i32 noundef 52, ptr noundef nonnull @.str.23, ptr noundef nonnull @.str.27, i32 noundef %5, i32 noundef %9) #2
  %.not30 = icmp eq i32 %25, 0
  br i1 %.not30, label %30, label %26

26:                                               ; preds = %24
  %27 = tail call i32 @test_int_eq(ptr noundef nonnull @.str.7, i32 noundef 53, ptr noundef nonnull @.str.28, ptr noundef nonnull @.str.13, i32 noundef %10, i32 noundef 0) #2
  %28 = icmp ne i32 %27, 0
  %29 = zext i1 %28 to i32
  br label %30

30:                                               ; preds = %26, %24, %22, %20, %18, %16, %14, %12, %1
  %31 = phi i32 [ 0, %24 ], [ 0, %22 ], [ 0, %20 ], [ 0, %18 ], [ 0, %16 ], [ 0, %14 ], [ 0, %12 ], [ 0, %1 ], [ %29, %26 ]
  ret i32 %31
}